; ModuleID = 'source-C-CXX/42/599.c'
source_filename = "source-C-CXX/42/599.c"
target datalayout = "e-m:e-p270:32:32-p271:32:32-p272:64:64-i64:64-f80:128-n8:16:32:64-S128"
target triple = "x86_64-pc-linux-gnu"

@.str = private unnamed_addr constant [3 x i8] c"%d\00", align 1
@.str.1 = private unnamed_addr constant [7 x i8] c"%d %d\0A\00", align 1

; Function Attrs: nofree nounwind sspstrong uwtable
define dso_local i32 @main() local_unnamed_addr #0 {
  %1 = alloca i32, align 4
  %2 = bitcast i32* %1 to i8*
  call void @llvm.lifetime.start.p0i8(i64 4, i8* nonnull %2) #4
  %3 = call i32 (i8*, ...) @__isoc99_scanf(i8* getelementptr inbounds ([3 x i8], [3 x i8]* @.str, i64 0, i64 0), i32* nonnull %1)
  %4 = load i32, i32* %1, align 4, !tbaa !5
  %5 = icmp slt i32 %4, 6
  br i1 %5, label %53, label %6

6:                                                ; preds = %0, %48
  %7 = phi i32 [ %49, %48 ], [ 3, %0 ]
  %8 = sitofp i32 %7 to double
  %9 = call double @sqrt(double %8) #4
  %10 = fcmp ult double %9, 3.000000e+00
  br i1 %10, label %11, label %18

11:                                               ; preds = %18, %6
  %12 = phi i32 [ 0, %6 ], [ %23, %18 ]
  %13 = load i32, i32* %1, align 4, !tbaa !5
  %14 = sub nsw i32 %13, %7
  %15 = sitofp i32 %14 to double
  %16 = call double @sqrt(double %15) #4
  %17 = fcmp ult double %16, 3.000000e+00
  br i1 %17, label %41, label %28

18:                                               ; preds = %6, %18
  %19 = phi i32 [ %23, %18 ], [ 0, %6 ]
  %20 = phi i32 [ %24, %18 ], [ 3, %6 ]
  %21 = urem i32 %7, %20
  %22 = icmp eq i32 %21, 0
  %23 = select i1 %22, i32 1, i32 %19
  %24 = add nuw nsw i32 %20, 2
  %25 = sitofp i32 %24 to double
  %26 = call double @sqrt(double %8) #4
  %27 = fcmp ult double %26, %25
  br i1 %27, label %11, label %18, !llvm.loop !9

28:                                               ; preds = %11, %28
  %29 = phi i32 [ %35, %28 ], [ %12, %11 ]
  %30 = phi i32 [ %36, %28 ], [ 3, %11 ]
  %31 = load i32, i32* %1, align 4, !tbaa !5
  %32 = sub nsw i32 %31, %7
  %33 = srem i32 %32, %30
  %34 = icmp eq i32 %33, 0
  %35 = select i1 %34, i32 1, i32 %29
  %36 = add nuw nsw i32 %30, 2
  %37 = sitofp i32 %36 to double
  %38 = sitofp i32 %32 to double
  %39 = call double @sqrt(double %38) #4
  %40 = fcmp ult double %39, %37
  br i1 %40, label %41, label %28, !llvm.loop !11

41:                                               ; preds = %28, %11
  %42 = phi i32 [ %12, %11 ], [ %35, %28 ]
  %43 = icmp eq i32 %42, 0
  br i1 %43, label %44, label %48

44:                                               ; preds = %41
  %45 = load i32, i32* %1, align 4, !tbaa !5
  %46 = sub nsw i32 %45, %7
  %47 = call i32 (i8*, ...) @printf(i8* nonnull dereferenceable(1) getelementptr inbounds ([7 x i8], [7 x i8]* @.str.1, i64 0, i64 0), i32 %7, i32 %46)
  br label %48

48:                                               ; preds = %44, %41
  %49 = add nuw nsw i32 %7, 2
  %50 = load i32, i32* %1, align 4, !tbaa !5
  %51 = sdiv i32 %50, 2
  %52 = icmp sgt i32 %49, %51
  br i1 %52, label %53, label %6, !llvm.loop !12

53:                                               ; preds = %48, %0
  call void @llvm.lifetime.end.p0i8(i64 4, i8* nonnull %2) #4
  ret i32 0
}

; Function Attrs: argmemonly mustprogress nofree nosync nounwind willreturn
declare void @llvm.lifetime.start.p0i8(i64 immarg, i8* nocapture) #1

; Function Attrs: nofree nounwind
declare noundef i32 @__isoc99_scanf(i8* nocapture noundef readonly, ...) local_unnamed_addr #2

; Function Attrs: mustprogress nofree nounwind willreturn
declare double @sqrt(double) local_unnamed_addr #3

; Function Attrs: nofree nounwind
declare noundef i32 @printf(i8* nocapture noundef readonly, ...) local_unnamed_addr #2

; Function Attrs: argmemonly mustprogress nofree nosync nounwind willreturn
declare void @llvm.lifetime.end.p0i8(i64 immarg, i8* nocapture) #1


!llvm.module.flags = !{!0, !1, !2, !3}
!llvm.ident = !{!4}

!0 = !{i32 1, !"wchar_size", i32 4}
!1 = !{i32 7, !"PIC Level", i32 2}
!2 = !{i32 7, !"PIE Level", i32 2}
!3 = !{i32 7, !"uwtable", i32 1}
!4 = !{!"clang version 13.0.0"}
!5 = !{!6, !6, i64 0}
!6 = !{!"int", !7, i64 0}
!7 = !{!"omnipotent char", !8, i64 0}
!8 = !{!"Simple C/C++ TBAA"}
!9 = distinct !{!9, !10}
!10 = !{!"llvm.loop.mustprogress"}
!11 = distinct !{!11, !10}
!12 = distinct !{!12, !10}
